; Function Attrs: mustprogress nofree norecurse nosync nounwind willreturn memory(argmem: readwrite) uwtable
define void @_ZN4LIEF5MachO11BindingInfo4swapERS1_(ptr noundef nonnull align 8 captures(none) dereferenceable(64) %0, ptr noundef nonnull align 8 captures(none) dereferenceable(64) %1) local_unnamed_addr #2 align 2 {
  %3 = getelementptr inbounds nuw i8, ptr %0, i64 8
  %4 = getelementptr inbounds nuw i8, ptr %1, i64 8
  %5 = load ptr, ptr %3, align 8, !tbaa !23
  %6 = load ptr, ptr %4, align 8, !tbaa !23
  store ptr %6, ptr %3, align 8, !tbaa !23
  store ptr %5, ptr %4, align 8, !tbaa !23
  %7 = getelementptr inbounds nuw i8, ptr %0, i64 16
  %8 = getelementptr inbounds nuw i8, ptr %1, i64 16
  %9 = load ptr, ptr %7, align 8, !tbaa !24
  %10 = load ptr, ptr %8, align 8, !tbaa !24
  store ptr %10, ptr %7, align 8, !tbaa !24
  store ptr %9, ptr %8, align 8, !tbaa !24
  %11 = getelementptr inbounds nuw i8, ptr %0, i64 24
  %12 = getelementptr inbounds nuw i8, ptr %1, i64 24
  %13 = load i32, ptr %11, align 8, !tbaa !25
  %14 = load i32, ptr %12, align 8, !tbaa !25
  store i32 %14, ptr %11, align 8, !tbaa !25
  store i32 %13, ptr %12, align 8, !tbaa !25
  %15 = getelementptr inbounds nuw i8, ptr %0, i64 32
  %16 = getelementptr inbounds nuw i8, ptr %1, i64 32
  %17 = load i64, ptr %15, align 8, !tbaa !26
  %18 = load i64, ptr %16, align 8, !tbaa !26
  store i64 %18, ptr %15, align 8, !tbaa !26
  store i64 %17, ptr %16, align 8, !tbaa !26
  %19 = getelementptr inbounds nuw i8, ptr %0, i64 40
  %20 = getelementptr inbounds nuw i8, ptr %1, i64 40
  %21 = load i8, ptr %19, align 8, !tbaa !27, !range !19, !noundef !20
  %22 = load i8, ptr %20, align 8, !tbaa !27, !range !19, !noundef !20
  store i8 %22, ptr %19, align 8, !tbaa !27
  store i8 %21, ptr %20, align 8, !tbaa !27
  %23 = getelementptr inbounds nuw i8, ptr %0, i64 48
  %24 = getelementptr inbounds nuw i8, ptr %1, i64 48
  %25 = load ptr, ptr %23, align 8, !tbaa !28
  %26 = load ptr, ptr %24, align 8, !tbaa !28
  store ptr %26, ptr %23, align 8, !tbaa !28
  store ptr %25, ptr %24, align 8, !tbaa !28
  %27 = getelementptr inbounds nuw i8, ptr %0, i64 56
  %28 = getelementptr inbounds nuw i8, ptr %1, i64 56
  %29 = load i64, ptr %27, align 8, !tbaa !26
  %30 = load i64, ptr %28, align 8, !tbaa !26
  store i64 %30, ptr %27, align 8, !tbaa !26
  store i64 %29, ptr %28, align 8, !tbaa !26
  ret void
}